target datalayout = "e-m:e-p270:32:32-p271:32:32-p272:64:64-i64:64-i128:128-f80:128-n8:16:32:64-S128"
target triple = "x86_64-pc-linux-gnu"

%"struct.faiss::IDSelector" = type { ptr }
%"struct.faiss::IDSelectorBitmap" = type { %"struct.faiss::IDSelector", i64, ptr }

; Function Attrs: mustprogress nounwind uwtable
define noundef zeroext i1 @_ZNK5faiss16IDSelectorBitmap9is_memberEl(ptr noundef nonnull align 8 dereferenceable(24) %0, i64 noundef %1) unnamed_addr #0 align 2 {
  %3 = alloca i1, align 1
  %4 = alloca ptr, align 8
  %5 = alloca i64, align 8
  %6 = alloca i64, align 8
  store ptr %0, ptr %4, align 8
  store i64 %1, ptr %5, align 8
  %7 = load ptr, ptr %4, align 8
  %8 = load i64, ptr %5, align 8
  store i64 %8, ptr %6, align 8
  %9 = load i64, ptr %6, align 8
  %10 = lshr i64 %9, 3
  %11 = getelementptr inbounds %"struct.faiss::IDSelectorBitmap", ptr %7, i32 0, i32 1
  %12 = load i64, ptr %11, align 8
  %13 = icmp uge i64 %10, %12
  br i1 %13, label %14, label %15

14:                                               ; preds = %2
  store i1 false, ptr %3, align 1
  br label %29

15:                                               ; preds = %2
  %16 = getelementptr inbounds %"struct.faiss::IDSelectorBitmap", ptr %7, i32 0, i32 2
  %17 = load ptr, ptr %16, align 8
  %18 = load i64, ptr %6, align 8
  %19 = lshr i64 %18, 3
  %20 = getelementptr inbounds i8, ptr %17, i64 %19
  %21 = load i8, ptr %20, align 1
  %22 = zext i8 %21 to i32
  %23 = load i64, ptr %6, align 8
  %24 = and i64 %23, 7
  %25 = trunc i64 %24 to i32
  %26 = ashr i32 %22, %25
  %27 = and i32 %26, 1
  %28 = icmp ne i32 %27, 0
  store i1 %28, ptr %3, align 1
  br label %29

29:                                               ; preds = %15, %14
  %30 = load i1, ptr %3, align 1
  ret i1 %30
}