; Function Attrs: mustprogress nofree norecurse nosync nounwind willreturn memory(read, inaccessiblemem: none) uwtable
define noundef zeroext i1 @_ZNK5faiss16IDSelectorBitmap9is_memberEl(ptr nocapture noundef nonnull readonly align 8 dereferenceable(24) %0, i64 noundef %1) unnamed_addr #2 align 2 {
  %3 = lshr i64 %1, 3
  %4 = getelementptr inbounds i8, ptr %0, i64 8
  %5 = load i64, ptr %4, align 8
  %.not = icmp ult i64 %3, %5
  br i1 %.not, label %6, label %17

6:                                                ; preds = %2
  %7 = getelementptr inbounds i8, ptr %0, i64 16
  %8 = load ptr, ptr %7, align 8
  %9 = getelementptr inbounds i8, ptr %8, i64 %3
  %10 = load i8, ptr %9, align 1
  %11 = zext i8 %10 to i32
  %12 = trunc i64 %1 to i32
  %13 = and i32 %12, 7
  %14 = shl nuw nsw i32 1, %13
  %15 = and i32 %14, %11
  %16 = icmp ne i32 %15, 0
  br label %17

17:                                               ; preds = %2, %6
  %.0 = phi i1 [ %16, %6 ], [ false, %2 ]
  ret i1 %.0
}